target datalayout = "e-m:e-p270:32:32-p271:32:32-p272:64:64-i64:64-i128:128-f80:128-n8:16:32:64-S128"
target triple = "x86_64-unknown-linux-gnu"

%"class.rocksdb::GenericRateLimiter" = type { %"class.rocksdb::RateLimiter.base", %"class.rocksdb::port::Mutex", %"struct.std::atomic", %"struct.std::atomic", %"struct.std::atomic", %"class.std::shared_ptr", i8, %"class.rocksdb::port::CondVar", i32, [4 x i64], [4 x i64], i64, i64, i32, %"class.rocksdb::Random", [4 x %"class.std::deque"], i8, i8, i64, i64, %"class.std::chrono::duration" }
%"class.rocksdb::RateLimiter.base" = type <{ ptr, i32 }>
%"class.rocksdb::port::Mutex" = type { %union.pthread_mutex_t }
%union.pthread_mutex_t = type { %struct.__pthread_mutex_s }
%struct.__pthread_mutex_s = type { i32, i32, i32, i32, i32, i16, i16, %struct.__pthread_internal_list }
%struct.__pthread_internal_list = type { ptr, ptr }
%"struct.std::atomic" = type { %"struct.std::__atomic_base" }
%"struct.std::__atomic_base" = type { i64 }
%"class.std::shared_ptr" = type { %"class.std::__shared_ptr" }
%"class.std::__shared_ptr" = type { ptr, %"class.std::__shared_count" }
%"class.std::__shared_count" = type { ptr }
%"class.rocksdb::port::CondVar" = type { %union.pthread_cond_t, ptr }
%union.pthread_cond_t = type { %struct.__pthread_cond_s }
%struct.__pthread_cond_s = type { %union.__atomic_wide_counter, %union.__atomic_wide_counter, [2 x i32], [2 x i32], i32, i32, [2 x i32] }
%union.__atomic_wide_counter = type { i64 }
%"class.rocksdb::Random" = type { i32 }
%"class.std::deque" = type { %"class.std::_Deque_base" }
%"class.std::_Deque_base" = type { %"struct.std::_Deque_base<rocksdb::GenericRateLimiter::Req *, std::allocator<rocksdb::GenericRateLimiter::Req *>>::_Deque_impl" }
%"struct.std::_Deque_base<rocksdb::GenericRateLimiter::Req *, std::allocator<rocksdb::GenericRateLimiter::Req *>>::_Deque_impl" = type { %"struct.std::_Deque_base<rocksdb::GenericRateLimiter::Req *, std::allocator<rocksdb::GenericRateLimiter::Req *>>::_Deque_impl_data" }
%"struct.std::_Deque_base<rocksdb::GenericRateLimiter::Req *, std::allocator<rocksdb::GenericRateLimiter::Req *>>::_Deque_impl_data" = type { ptr, i64, %"struct.std::_Deque_iterator", %"struct.std::_Deque_iterator" }
%"struct.std::_Deque_iterator" = type { ptr, ptr, ptr, ptr }
%"class.std::chrono::duration" = type { i64 }

; Function Attrs: mustprogress nounwind uwtable
define linkonce_odr noundef i64 @_ZNSt14numeric_limitsIlE3maxEv() #1 comdat align 2 {
entry:
  ret i64 9223372036854775807
}

; Function Attrs: noreturn nounwind uwtable
define linkonce_odr hidden void @__clang_call_terminate(ptr noundef %0) #4 comdat {
  %2 = call ptr @__cxa_begin_catch(ptr %0) #12
  call void @_ZSt9terminatev() #13
  unreachable
}

; Function Attrs: mustprogress nounwind uwtable
define linkonce_odr noundef i32 @_ZStanSt12memory_orderSt23__memory_order_modifier(i32 noundef %__m, i32 noundef %__mod) #1 comdat {
entry:
  %__m.addr = alloca i32, align 4
  %__mod.addr = alloca i32, align 4
  store i32 %__m, ptr %__m.addr, align 4
  store i32 %__mod, ptr %__mod.addr, align 4
  %0 = load i32, ptr %__m.addr, align 4
  %1 = load i32, ptr %__mod.addr, align 4
  %and = and i32 %0, %1
  ret i32 %and
}

; Function Attrs: mustprogress nounwind uwtable
define noundef i64 @_ZN7rocksdb18GenericRateLimiter35CalculateRefillBytesPerPeriodLockedEl(ptr noundef nonnull align 8 dereferenceable(608) %this, i64 noundef %rate_bytes_per_sec) #1 align 2 personality ptr @__gxx_personality_v0 {
entry:
  %this.addr.i = alloca ptr, align 8
  %__m.addr.i = alloca i32, align 4
  %__b.i = alloca i32, align 4
  %atomic-temp.i = alloca i64, align 8
  %retval = alloca i64, align 8
  %this.addr = alloca ptr, align 8
  %rate_bytes_per_sec.addr = alloca i64, align 8
  %refill_period_us = alloca i64, align 8
  store ptr %this, ptr %this.addr, align 8
  store i64 %rate_bytes_per_sec, ptr %rate_bytes_per_sec.addr, align 8
  %this1 = load ptr, ptr %this.addr, align 8
  %refill_period_us_ = getelementptr inbounds %"class.rocksdb::GenericRateLimiter", ptr %this1, i32 0, i32 2
  store ptr %refill_period_us_, ptr %this.addr.i, align 8
  store i32 0, ptr %__m.addr.i, align 4
  %this1.i = load ptr, ptr %this.addr.i, align 8
  %0 = load i32, ptr %__m.addr.i, align 4
  %call.i = invoke noundef i32 @_ZStanSt12memory_orderSt23__memory_order_modifier(i32 noundef %0, i32 noundef 65535)
          to label %invoke.cont.i unwind label %terminate.lpad.i

invoke.cont.i:                                    ; preds = %entry
  store i32 %call.i, ptr %__b.i, align 4
  %1 = load i32, ptr %__m.addr.i, align 4
  switch i32 %1, label %monotonic.i [
    i32 1, label %acquire.i
    i32 2, label %acquire.i
    i32 5, label %seqcst.i
  ]

monotonic.i:                                      ; preds = %invoke.cont.i
  %2 = load atomic i64, ptr %this1.i monotonic, align 8
  store i64 %2, ptr %atomic-temp.i, align 8
  br label %_ZNKSt13__atomic_baseIlE4loadESt12memory_order.exit

acquire.i:                                        ; preds = %invoke.cont.i, %invoke.cont.i
  %3 = load atomic i64, ptr %this1.i acquire, align 8
  store i64 %3, ptr %atomic-temp.i, align 8
  br label %_ZNKSt13__atomic_baseIlE4loadESt12memory_order.exit

seqcst.i:                                         ; preds = %invoke.cont.i
  %4 = load atomic i64, ptr %this1.i seq_cst, align 8
  store i64 %4, ptr %atomic-temp.i, align 8
  br label %_ZNKSt13__atomic_baseIlE4loadESt12memory_order.exit

terminate.lpad.i:                                 ; preds = %entry
  %5 = landingpad { ptr, i32 }
          catch ptr null
  %6 = extractvalue { ptr, i32 } %5, 0
  call void @__clang_call_terminate(ptr %6) #13
  unreachable

_ZNKSt13__atomic_baseIlE4loadESt12memory_order.exit: ; preds = %seqcst.i, %acquire.i, %monotonic.i
  %7 = load i64, ptr %atomic-temp.i, align 8
  store i64 %7, ptr %refill_period_us, align 8
  %call2 = call noundef i64 @_ZNSt14numeric_limitsIlE3maxEv() #12
  %8 = load i64, ptr %rate_bytes_per_sec.addr, align 8
  %div = sdiv i64 %call2, %8
  %9 = load i64, ptr %refill_period_us, align 8
  %cmp = icmp slt i64 %div, %9
  br i1 %cmp, label %if.then, label %if.else

if.then:                                          ; preds = %_ZNKSt13__atomic_baseIlE4loadESt12memory_order.exit
  %call3 = call noundef i64 @_ZNSt14numeric_limitsIlE3maxEv() #12
  %div4 = sdiv i64 %call3, 1000000
  store i64 %div4, ptr %retval, align 8
  br label %return

if.else:                                          ; preds = %_ZNKSt13__atomic_baseIlE4loadESt12memory_order.exit
  %10 = load i64, ptr %rate_bytes_per_sec.addr, align 8
  %11 = load i64, ptr %refill_period_us, align 8
  %mul = mul nsw i64 %10, %11
  %div5 = sdiv i64 %mul, 1000000
  store i64 %div5, ptr %retval, align 8
  br label %return

return:                                           ; preds = %if.else, %if.then
  %12 = load i64, ptr %retval, align 8
  ret i64 %12
}