; Function Attrs: mustprogress nofree norecurse nounwind willreturn memory(argmem: readwrite) uwtable
define noundef i64 @_ZN7rocksdb18GenericRateLimiter35CalculateRefillBytesPerPeriodLockedEl(ptr nocapture noundef nonnull readonly align 8 dereferenceable(608) %this, i64 noundef %rate_bytes_per_sec) local_unnamed_addr #2 align 2 personality ptr @__gxx_personality_v0 {
entry:
  %refill_period_us_ = getelementptr inbounds i8, ptr %this, i64 56
  %0 = load atomic i64, ptr %refill_period_us_ monotonic, align 8
  %div = sdiv i64 9223372036854775807, %rate_bytes_per_sec
  %cmp = icmp slt i64 %div, %0
  %mul = mul nsw i64 %0, %rate_bytes_per_sec
  %1 = sdiv i64 %mul, 1000000
  %retval.0 = select i1 %cmp, i64 9223372036854, i64 %1
  ret i64 %retval.0
}